; Function Attrs: mustprogress uwtable
define void @_ZN6htif_tC2EiPPc(ptr noundef nonnull align 8 dereferenceable(712) initializes((0, 12), (16, 32)) %0, i32 noundef %1, ptr noundef %2) unnamed_addr #3 align 2 personality ptr @__gxx_personality_v0 {
  tail call void @_ZN6htif_tC2Ev(ptr noundef nonnull align 8 dereferenceable(712) %0)
  %4 = getelementptr inbounds nuw i8, ptr %0, i64 136
  store i32 16, ptr %4, align 8, !tbaa !101
  invoke void @_ZN6htif_t15parse_argumentsEiPPc(ptr noundef nonnull align 8 dereferenceable(712) %0, i32 noundef %1, ptr noundef %2)
          to label %5 unwind label %.loopexit.split-lp

5:                                                ; preds = %3
  %6 = getelementptr inbounds nuw i8, ptr %0, i64 192
  %7 = getelementptr inbounds nuw i8, ptr %0, i64 280
  invoke void @_ZN13device_list_t15register_deviceEP8device_t(ptr noundef nonnull align 8 dereferenceable(88) %6, ptr noundef nonnull %7)
          to label %.noexc unwind label %.loopexit.split-lp

.noexc:                                           ; preds = %5
  %8 = getelementptr inbounds nuw i8, ptr %0, i64 456
  invoke void @_ZN13device_list_t15register_deviceEP8device_t(ptr noundef nonnull align 8 dereferenceable(88) %6, ptr noundef nonnull %8)
          to label %.noexc4 unwind label %.loopexit.split-lp

.noexc4:                                          ; preds = %.noexc
  %9 = getelementptr inbounds nuw i8, ptr %0, i64 592
  %10 = load ptr, ptr %9, align 8, !tbaa !102
  %11 = getelementptr inbounds nuw i8, ptr %0, i64 600
  %12 = load ptr, ptr %11, align 8, !tbaa !102
  %13 = icmp eq ptr %10, %12
  br i1 %13, label %_ZN6htif_t16register_devicesEv.exit, label %.lr.ph.i

.lr.ph.i:                                         ; preds = %.noexc4, %.noexc5
  %.sroa.04.07.i = phi ptr [ %15, %.noexc5 ], [ %10, %.noexc4 ]
  %14 = load ptr, ptr %.sroa.04.07.i, align 8, !tbaa !103
  invoke void @_ZN13device_list_t15register_deviceEP8device_t(ptr noundef nonnull align 8 dereferenceable(88) %6, ptr noundef %14)
          to label %.noexc5 unwind label %.loopexit

.noexc5:                                          ; preds = %.lr.ph.i
  %15 = getelementptr inbounds nuw i8, ptr %.sroa.04.07.i, i64 8
  %16 = icmp eq ptr %15, %12
  br i1 %16, label %_ZN6htif_t16register_devicesEv.exit, label %.lr.ph.i

_ZN6htif_t16register_devicesEv.exit:              ; preds = %.noexc5, %.noexc4
  ret void

.loopexit:                                        ; preds = %.lr.ph.i
  %lpad.loopexit = landingpad { ptr, i32 }
          cleanup
  br label %17

.loopexit.split-lp:                               ; preds = %3, %5, %.noexc
  %lpad.loopexit.split-lp = landingpad { ptr, i32 }
          cleanup
  br label %17

17:                                               ; preds = %.loopexit.split-lp, %.loopexit
  %lpad.phi = phi { ptr, i32 } [ %lpad.loopexit, %.loopexit ], [ %lpad.loopexit.split-lp, %.loopexit.split-lp ]
  tail call void @_ZN6htif_tD2Ev(ptr noundef nonnull align 8 dereferenceable(712) %0) #37
  resume { ptr, i32 } %lpad.phi
}